; Function Attrs: mustprogress nofree norecurse nosync nounwind willreturn memory(argmem: write) uwtable
define dso_local void @_ZN5ImageC2Ev(ptr noundef nonnull align 8 dereferenceable(64) initializes((0, 16), (24, 28), (32, 40)) %0) unnamed_addr #3 align 2 personality ptr @__gxx_personality_v0 {
  %2 = getelementptr inbounds nuw i8, ptr %0, i64 24
  store i32 0, ptr %2, align 8, !tbaa !11
  %3 = getelementptr inbounds nuw i8, ptr %0, i64 32
  store ptr null, ptr %3, align 8, !tbaa !17
  %4 = getelementptr inbounds nuw i8, ptr %0, i64 40
  tail call void @llvm.memset.p0.i64(ptr noundef nonnull align 8 dereferenceable(16) %0, i8 0, i64 16, i1 false)
  store ptr %2, ptr %4, align 8, !tbaa !18
  %5 = getelementptr inbounds nuw i8, ptr %0, i64 48
  store ptr %2, ptr %5, align 8, !tbaa !19
  %6 = getelementptr inbounds nuw i8, ptr %0, i64 56
  store i64 0, ptr %6, align 8, !tbaa !20
  ret void
}